; ModuleID = '24/1287.c'
source_filename = "24/1287.c"
target datalayout = "e-m:e-p270:32:32-p271:32:32-p272:64:64-i64:64-f80:128-n8:16:32:64-S128"
target triple = "x86_64-pc-linux-gnu"

@.str = private unnamed_addr constant [4 x i8] c"%s\0A\00", align 1
@.str.1 = private unnamed_addr constant [3 x i8] c"%s\00", align 1

; Function Attrs: noinline nounwind uwtable
define dso_local void @main() #0 {
  %1 = alloca i8*, align 8
  %2 = alloca i32*, align 8
  %3 = alloca i32, align 4
  %4 = alloca i32, align 4
  %5 = alloca i32, align 4
  %6 = alloca i32, align 4
  %7 = alloca i32, align 4
  %8 = alloca i32, align 4
  %9 = alloca i32, align 4
  store i32 0, i32* %5, align 4
  store i32 0, i32* %6, align 4
  store i32 100, i32* %7, align 4
  store i32 0, i32* %9, align 4
  %10 = call noalias i8* @malloc(i64 1000) #4
  store i8* %10, i8** %1, align 8
  %11 = call noalias i8* @malloc(i64 200) #4
  %12 = bitcast i8* %11 to i32*
  store i32* %12, i32** %2, align 8
  store i32 0, i32* %4, align 4
  br label %13

13:                                               ; preds = %21, %0
  %14 = load i32, i32* %4, align 4
  %15 = icmp slt i32 %14, 50
  br i1 %15, label %16, label %24

16:                                               ; preds = %13
  %17 = load i32*, i32** %2, align 8
  %18 = load i32, i32* %4, align 4
  %19 = sext i32 %18 to i64
  %20 = getelementptr inbounds i32, i32* %17, i64 %19
  store i32 0, i32* %20, align 4
  br label %21

21:                                               ; preds = %16
  %22 = load i32, i32* %4, align 4
  %23 = add nsw i32 %22, 1
  store i32 %23, i32* %4, align 4
  br label %13

24:                                               ; preds = %13
  %25 = load i8*, i8** %1, align 8
  %26 = call i32 (i8*, ...) bitcast (i32 (...)* @gets to i32 (i8*, ...)*)(i8* %25)
  %27 = load i8*, i8** %1, align 8
  %28 = call i64 @strlen(i8* %27) #5
  %29 = trunc i64 %28 to i32
  store i32 %29, i32* %3, align 4
  store i32 0, i32* %4, align 4
  br label %30

30:                                               ; preds = %57, %24
  %31 = load i32, i32* %4, align 4
  %32 = load i32, i32* %3, align 4
  %33 = icmp slt i32 %31, %32
  br i1 %33, label %34, label %60

34:                                               ; preds = %30
  %35 = load i8*, i8** %1, align 8
  %36 = load i32, i32* %4, align 4
  %37 = sext i32 %36 to i64
  %38 = getelementptr inbounds i8, i8* %35, i64 %37
  %39 = load i8, i8* %38, align 1
  %40 = sext i8 %39 to i32
  %41 = icmp ne i32 %40, 32
  br i1 %41, label %42, label %49

42:                                               ; preds = %34
  %43 = load i32*, i32** %2, align 8
  %44 = load i32, i32* %5, align 4
  %45 = sext i32 %44 to i64
  %46 = getelementptr inbounds i32, i32* %43, i64 %45
  %47 = load i32, i32* %46, align 4
  %48 = add nsw i32 %47, 1
  store i32 %48, i32* %46, align 4
  br label %56

49:                                               ; preds = %34
  %50 = load i32, i32* %5, align 4
  %51 = add nsw i32 %50, 1
  store i32 %51, i32* %5, align 4
  %52 = load i8*, i8** %1, align 8
  %53 = load i32, i32* %4, align 4
  %54 = sext i32 %53 to i64
  %55 = getelementptr inbounds i8, i8* %52, i64 %54
  store i8 0, i8* %55, align 1
  br label %56

56:                                               ; preds = %49, %42
  br label %57

57:                                               ; preds = %56
  %58 = load i32, i32* %4, align 4
  %59 = add nsw i32 %58, 1
  store i32 %59, i32* %4, align 4
  br label %30

60:                                               ; preds = %30
  store i32 0, i32* %4, align 4
  br label %61

61:                                               ; preds = %94, %60
  %62 = load i32, i32* %4, align 4
  %63 = load i32, i32* %5, align 4
  %64 = icmp sle i32 %62, %63
  br i1 %64, label %65, label %97

65:                                               ; preds = %61
  %66 = load i32, i32* %6, align 4
  %67 = load i32*, i32** %2, align 8
  %68 = load i32, i32* %4, align 4
  %69 = sext i32 %68 to i64
  %70 = getelementptr inbounds i32, i32* %67, i64 %69
  %71 = load i32, i32* %70, align 4
  %72 = icmp slt i32 %66, %71
  br i1 %72, label %73, label %79

73:                                               ; preds = %65
  %74 = load i32*, i32** %2, align 8
  %75 = load i32, i32* %4, align 4
  %76 = sext i32 %75 to i64
  %77 = getelementptr inbounds i32, i32* %74, i64 %76
  %78 = load i32, i32* %77, align 4
  store i32 %78, i32* %6, align 4
  br label %79

79:                                               ; preds = %73, %65
  %80 = load i32, i32* %7, align 4
  %81 = load i32*, i32** %2, align 8
  %82 = load i32, i32* %4, align 4
  %83 = sext i32 %82 to i64
  %84 = getelementptr inbounds i32, i32* %81, i64 %83
  %85 = load i32, i32* %84, align 4
  %86 = icmp sgt i32 %80, %85
  br i1 %86, label %87, label %93

87:                                               ; preds = %79
  %88 = load i32*, i32** %2, align 8
  %89 = load i32, i32* %4, align 4
  %90 = sext i32 %89 to i64
  %91 = getelementptr inbounds i32, i32* %88, i64 %90
  %92 = load i32, i32* %91, align 4
  store i32 %92, i32* %7, align 4
  br label %93

93:                                               ; preds = %87, %79
  br label %94

94:                                               ; preds = %93
  %95 = load i32, i32* %4, align 4
  %96 = add nsw i32 %95, 1
  store i32 %96, i32* %4, align 4
  br label %61

97:                                               ; preds = %61
  store i32 0, i32* %4, align 4
  br label %98

98:                                               ; preds = %112, %97
  %99 = load i32, i32* %4, align 4
  %100 = load i32, i32* %5, align 4
  %101 = icmp sle i32 %99, %100
  br i1 %101, label %102, label %115

102:                                              ; preds = %98
  %103 = load i32, i32* %6, align 4
  %104 = load i32*, i32** %2, align 8
  %105 = load i32, i32* %4, align 4
  %106 = sext i32 %105 to i64
  %107 = getelementptr inbounds i32, i32* %104, i64 %106
  %108 = load i32, i32* %107, align 4
  %109 = icmp eq i32 %103, %108
  br i1 %109, label %110, label %111

110:                                              ; preds = %102
  br label %115

111:                                              ; preds = %102
  br label %112

112:                                              ; preds = %111
  %113 = load i32, i32* %4, align 4
  %114 = add nsw i32 %113, 1
  store i32 %114, i32* %4, align 4
  br label %98

115:                                              ; preds = %110, %98
  store i32 0, i32* %8, align 4
  br label %116

116:                                              ; preds = %137, %115
  %117 = load i32, i32* %8, align 4
  %118 = load i32, i32* %3, align 4
  %119 = icmp slt i32 %117, %118
  br i1 %119, label %120, label %140

120:                                              ; preds = %116
  %121 = load i32, i32* %4, align 4
  %122 = load i32, i32* %9, align 4
  %123 = icmp eq i32 %121, %122
  br i1 %123, label %124, label %125

124:                                              ; preds = %120
  br label %140

125:                                              ; preds = %120
  %126 = load i8*, i8** %1, align 8
  %127 = load i32, i32* %8, align 4
  %128 = sext i32 %127 to i64
  %129 = getelementptr inbounds i8, i8* %126, i64 %128
  %130 = load i8, i8* %129, align 1
  %131 = sext i8 %130 to i32
  %132 = icmp eq i32 %131, 0
  br i1 %132, label %133, label %136

133:                                              ; preds = %125
  %134 = load i32, i32* %9, align 4
  %135 = add nsw i32 %134, 1
  store i32 %135, i32* %9, align 4
  br label %136

136:                                              ; preds = %133, %125
  br label %137

137:                                              ; preds = %136
  %138 = load i32, i32* %8, align 4
  %139 = add nsw i32 %138, 1
  store i32 %139, i32* %8, align 4
  br label %116

140:                                              ; preds = %124, %116
  %141 = load i8*, i8** %1, align 8
  %142 = load i32, i32* %8, align 4
  %143 = sext i32 %142 to i64
  %144 = getelementptr inbounds i8, i8* %141, i64 %143
  %145 = call i32 (i8*, ...) @printf(i8* getelementptr inbounds ([4 x i8], [4 x i8]* @.str, i64 0, i64 0), i8* %144)
  store i32 0, i32* %9, align 4
  store i32 0, i32* %4, align 4
  br label %146

146:                                              ; preds = %160, %140
  %147 = load i32, i32* %4, align 4
  %148 = load i32, i32* %5, align 4
  %149 = icmp sle i32 %147, %148
  br i1 %149, label %150, label %163

150:                                              ; preds = %146
  %151 = load i32, i32* %7, align 4
  %152 = load i32*, i32** %2, align 8
  %153 = load i32, i32* %4, align 4
  %154 = sext i32 %153 to i64
  %155 = getelementptr inbounds i32, i32* %152, i64 %154
  %156 = load i32, i32* %155, align 4
  %157 = icmp eq i32 %151, %156
  br i1 %157, label %158, label %159

158:                                              ; preds = %150
  br label %163

159:                                              ; preds = %150
  br label %160

160:                                              ; preds = %159
  %161 = load i32, i32* %4, align 4
  %162 = add nsw i32 %161, 1
  store i32 %162, i32* %4, align 4
  br label %146

163:                                              ; preds = %158, %146
  store i32 0, i32* %8, align 4
  br label %164

164:                                              ; preds = %185, %163
  %165 = load i32, i32* %8, align 4
  %166 = load i32, i32* %3, align 4
  %167 = icmp slt i32 %165, %166
  br i1 %167, label %168, label %188

168:                                              ; preds = %164
  %169 = load i32, i32* %4, align 4
  %170 = load i32, i32* %9, align 4
  %171 = icmp eq i32 %169, %170
  br i1 %171, label %172, label %173

172:                                              ; preds = %168
  br label %188

173:                                              ; preds = %168
  %174 = load i8*, i8** %1, align 8
  %175 = load i32, i32* %8, align 4
  %176 = sext i32 %175 to i64
  %177 = getelementptr inbounds i8, i8* %174, i64 %176
  %178 = load i8, i8* %177, align 1
  %179 = sext i8 %178 to i32
  %180 = icmp eq i32 %179, 0
  br i1 %180, label %181, label %184

181:                                              ; preds = %173
  %182 = load i32, i32* %9, align 4
  %183 = add nsw i32 %182, 1
  store i32 %183, i32* %9, align 4
  br label %184

184:                                              ; preds = %181, %173
  br label %185

185:                                              ; preds = %184
  %186 = load i32, i32* %8, align 4
  %187 = add nsw i32 %186, 1
  store i32 %187, i32* %8, align 4
  br label %164

188:                                              ; preds = %172, %164
  %189 = load i8*, i8** %1, align 8
  %190 = load i32, i32* %8, align 4
  %191 = sext i32 %190 to i64
  %192 = getelementptr inbounds i8, i8* %189, i64 %191
  %193 = call i32 (i8*, ...) @printf(i8* getelementptr inbounds ([3 x i8], [3 x i8]* @.str.1, i64 0, i64 0), i8* %192)
  ret void
}

; Function Attrs: nounwind
declare dso_local noalias i8* @malloc(i64) #1

declare dso_local i32 @gets(...) #2

; Function Attrs: nounwind readonly
declare dso_local i64 @strlen(i8*) #3

declare dso_local i32 @printf(i8*, ...) #2


!llvm.module.flags = !{!0}
!llvm.ident = !{!1}

!0 = !{i32 1, !"wchar_size", i32 4}
!1 = !{!"clang version 10.0.0-4ubuntu1 "}
